target datalayout = "e-m:e-p270:32:32-p271:32:32-p272:64:64-i64:64-i128:128-f80:128-n8:16:32:64-S128"
target triple = "x86_64-pc-linux-gnu"

%struct.backup_manifest_info = type { ptr, i32, ptr, i64, i8, i8, i8 }
%struct.stat = type { i64, i64, i64, i32, i32, i32, i32, i64, i64, i64, i64, %struct.timespec, %struct.timespec, %struct.timespec, [3 x i64] }
%struct.timespec = type { i64, i64 }
%struct.bbsink = type { ptr, ptr, i64, ptr, ptr }
%struct.bbsink_ops = type { ptr, ptr, ptr, ptr, ptr, ptr, ptr, ptr, ptr }
%struct.pg_checksum_context = type { i32, %union.pg_checksum_raw_context }
%union.pg_checksum_raw_context = type { ptr }

@.str.1 = private unnamed_addr constant [13 x i8] c"basebackup.c\00", align 1
@.str.96 = private unnamed_addr constant [43 x i8] c"could not initialize checksum of file \22%s\22\00", align 1
@__func__.sendFileWithContent = private unnamed_addr constant [20 x i8] c"sendFileWithContent\00", align 1
@pg_file_create_mode = external global i32, align 4
@.str.97 = private unnamed_addr constant [39 x i8] c"could not update checksum of file \22%s\22\00", align 1

; Function Attrs: inlinehint nounwind uwtable
define internal i64 @tarPaddingBytesRequired(i64 noundef %0) #4 {
  %2 = alloca i64, align 8
  store i64 %0, ptr %2, align 8
  %3 = load i64, ptr %2, align 8
  %4 = add i64 %3, 511
  %5 = and i64 %4, -512
  %6 = load i64, ptr %2, align 8
  %7 = sub i64 %5, %6
  ret i64 %7
}

; Function Attrs: nounwind uwtable
define internal void @_tarWritePadding(ptr noundef %0, i32 noundef %1) #0 {
  %3 = alloca ptr, align 8
  %4 = alloca i32, align 4
  %5 = alloca i32, align 4
  %6 = alloca ptr, align 8
  %7 = alloca i32, align 4
  %8 = alloca i64, align 8
  %9 = alloca ptr, align 8
  %10 = alloca ptr, align 8
  store ptr %0, ptr %3, align 8
  store i32 %1, ptr %4, align 4
  call void @llvm.lifetime.start.p0(i64 4, ptr %5) #13
  %11 = load i32, ptr %4, align 4
  %12 = sext i32 %11 to i64
  %13 = call i64 @tarPaddingBytesRequired(i64 noundef %12)
  %14 = trunc i64 %13 to i32
  store i32 %14, ptr %5, align 4
  %15 = load i32, ptr %5, align 4
  %16 = icmp sgt i32 %15, 0
  br i1 %16, label %17, label %62

17:                                               ; preds = %2
  br label %18

18:                                               ; preds = %17
  call void @llvm.lifetime.start.p0(i64 8, ptr %6) #13
  %19 = load ptr, ptr %3, align 8
  %20 = getelementptr inbounds nuw %struct.bbsink, ptr %19, i32 0, i32 1
  %21 = load ptr, ptr %20, align 8
  store ptr %21, ptr %6, align 8
  call void @llvm.lifetime.start.p0(i64 4, ptr %7) #13
  store i32 0, ptr %7, align 4
  call void @llvm.lifetime.start.p0(i64 8, ptr %8) #13
  %22 = load i32, ptr %5, align 4
  %23 = sext i32 %22 to i64
  store i64 %23, ptr %8, align 8
  %24 = load ptr, ptr %6, align 8
  %25 = ptrtoint ptr %24 to i64
  %26 = and i64 %25, 7
  %27 = icmp eq i64 %26, 0
  br i1 %27, label %28, label %51

28:                                               ; preds = %18
  %29 = load i64, ptr %8, align 8
  %30 = and i64 %29, 7
  %31 = icmp eq i64 %30, 0
  br i1 %31, label %32, label %51

32:                                               ; preds = %28
  %33 = load i32, ptr %7, align 4
  %34 = icmp eq i32 %33, 0
  br i1 %34, label %35, label %51

35:                                               ; preds = %32
  %36 = load i64, ptr %8, align 8
  %37 = icmp ule i64 %36, 1024
  br i1 %37, label %38, label %51

38:                                               ; preds = %35
  call void @llvm.lifetime.start.p0(i64 8, ptr %9) #13
  %39 = load ptr, ptr %6, align 8
  store ptr %39, ptr %9, align 8
  call void @llvm.lifetime.start.p0(i64 8, ptr %10) #13
  %40 = load ptr, ptr %9, align 8
  %41 = load i64, ptr %8, align 8
  %42 = getelementptr inbounds nuw i8, ptr %40, i64 %41
  store ptr %42, ptr %10, align 8
  br label %43

43:                                               ; preds = %47, %38
  %44 = load ptr, ptr %9, align 8
  %45 = load ptr, ptr %10, align 8
  %46 = icmp ult ptr %44, %45
  br i1 %46, label %47, label %50

47:                                               ; preds = %43
  %48 = load ptr, ptr %9, align 8
  %49 = getelementptr inbounds nuw i64, ptr %48, i32 1
  store ptr %49, ptr %9, align 8
  store i64 0, ptr %48, align 8
  br label %43, !llvm.loop !23

50:                                               ; preds = %43
  call void @llvm.lifetime.end.p0(i64 8, ptr %10) #13
  call void @llvm.lifetime.end.p0(i64 8, ptr %9) #13
  br label %56

51:                                               ; preds = %35, %32, %28, %18
  %52 = load ptr, ptr %6, align 8
  %53 = load i32, ptr %7, align 4
  %54 = trunc i32 %53 to i8
  %55 = load i64, ptr %8, align 8
  call void @llvm.memset.p0.i64(ptr align 1 %52, i8 %54, i64 %55, i1 false)
  br label %56

56:                                               ; preds = %51, %50
  call void @llvm.lifetime.end.p0(i64 8, ptr %8) #13
  call void @llvm.lifetime.end.p0(i64 4, ptr %7) #13
  call void @llvm.lifetime.end.p0(i64 8, ptr %6) #13
  br label %57

57:                                               ; preds = %56
  br label %58

58:                                               ; preds = %57
  %59 = load ptr, ptr %3, align 8
  %60 = load i32, ptr %5, align 4
  %61 = sext i32 %60 to i64
  call void @bbsink_archive_contents(ptr noundef %59, i64 noundef %61)
  br label %62

62:                                               ; preds = %58, %2
  call void @llvm.lifetime.end.p0(i64 4, ptr %5) #13
  ret void
}

; Function Attrs: inlinehint nounwind uwtable
define internal void @bbsink_archive_contents(ptr noundef %0, i64 noundef %1) #4 {
  %3 = alloca ptr, align 8
  %4 = alloca i64, align 8
  store ptr %0, ptr %3, align 8
  store i64 %1, ptr %4, align 8
  %5 = load ptr, ptr %3, align 8
  %6 = getelementptr inbounds nuw %struct.bbsink, ptr %5, i32 0, i32 0
  %7 = load ptr, ptr %6, align 8
  %8 = getelementptr inbounds nuw %struct.bbsink_ops, ptr %7, i32 0, i32 2
  %9 = load ptr, ptr %8, align 8
  %10 = load ptr, ptr %3, align 8
  %11 = load i64, ptr %4, align 8
  call void %9(ptr noundef %10, i64 noundef %11)
  ret void
}

; Function Attrs: nounwind uwtable
define internal void @sendFileWithContent(ptr noundef %0, ptr noundef %1, ptr noundef %2, i32 noundef %3, ptr noundef %4) #0 {
  %6 = alloca ptr, align 8
  %7 = alloca ptr, align 8
  %8 = alloca ptr, align 8
  %9 = alloca i32, align 4
  %10 = alloca ptr, align 8
  %11 = alloca %struct.stat, align 8
  %12 = alloca i32, align 4
  %13 = alloca %struct.pg_checksum_context, align 8
  %14 = alloca i64, align 8
  %15 = alloca i64, align 8
  store ptr %0, ptr %6, align 8
  store ptr %1, ptr %7, align 8
  store ptr %2, ptr %8, align 8
  store i32 %3, ptr %9, align 4
  store ptr %4, ptr %10, align 8
  call void @llvm.lifetime.start.p0(i64 144, ptr %11) #13
  call void @llvm.lifetime.start.p0(i64 4, ptr %12) #13
  store i32 0, ptr %12, align 4
  call void @llvm.lifetime.start.p0(i64 16, ptr %13) #13
  %16 = load ptr, ptr %10, align 8
  %17 = getelementptr inbounds nuw %struct.backup_manifest_info, ptr %16, i32 0, i32 1
  %18 = load i32, ptr %17, align 8
  %19 = call i32 @pg_checksum_init(ptr noundef %13, i32 noundef %18)
  %20 = icmp slt i32 %19, 0
  br i1 %20, label %21, label %33

21:                                               ; preds = %5
  br label %22

22:                                               ; preds = %21
  br i1 true, label %23, label %25

23:                                               ; preds = %22
  %24 = call zeroext i1 @errstart_cold(i32 noundef 21, ptr noundef null) #14
  br i1 %24, label %27, label %30

25:                                               ; preds = %22
  %26 = call zeroext i1 @errstart(i32 noundef 21, ptr noundef null)
  br i1 %26, label %27, label %30

27:                                               ; preds = %25, %23
  %28 = load ptr, ptr %7, align 8
  %29 = call i32 (ptr, ...) @errmsg_internal(ptr noundef @.str.96, ptr noundef %28)
  call void @errfinish(ptr noundef @.str.1, i32 noundef 1084, ptr noundef @__func__.sendFileWithContent)
  br label %30

30:                                               ; preds = %27, %25, %23
  unreachable

31:                                               ; No predecessors!
  br label %32

32:                                               ; preds = %31
  br label %33

33:                                               ; preds = %32, %5
  %34 = load i32, ptr %9, align 4
  %35 = icmp slt i32 %34, 0
  br i1 %35, label %36, label %40

36:                                               ; preds = %33
  %37 = load ptr, ptr %8, align 8
  %38 = call i64 @strlen(ptr noundef %37) #17
  %39 = trunc i64 %38 to i32
  store i32 %39, ptr %9, align 4
  br label %40

40:                                               ; preds = %36, %33
  %41 = call i32 @geteuid() #13
  %42 = getelementptr inbounds nuw %struct.stat, ptr %11, i32 0, i32 4
  store i32 %41, ptr %42, align 4
  %43 = call i32 @getegid() #13
  %44 = getelementptr inbounds nuw %struct.stat, ptr %11, i32 0, i32 5
  store i32 %43, ptr %44, align 8
  %45 = call i64 @time(ptr noundef null) #13
  %46 = getelementptr inbounds nuw %struct.stat, ptr %11, i32 0, i32 12
  %47 = getelementptr inbounds nuw %struct.timespec, ptr %46, i32 0, i32 0
  store i64 %45, ptr %47, align 8
  %48 = load i32, ptr @pg_file_create_mode, align 4
  %49 = getelementptr inbounds nuw %struct.stat, ptr %11, i32 0, i32 3
  store i32 %48, ptr %49, align 8
  %50 = load i32, ptr %9, align 4
  %51 = sext i32 %50 to i64
  %52 = getelementptr inbounds nuw %struct.stat, ptr %11, i32 0, i32 8
  store i64 %51, ptr %52, align 8
  %53 = load ptr, ptr %6, align 8
  %54 = load ptr, ptr %7, align 8
  %55 = call i64 @_tarWriteHeader(ptr noundef %53, ptr noundef %54, ptr noundef null, ptr noundef %11, i1 noundef zeroext false)
  %56 = load ptr, ptr %8, align 8
  %57 = load i32, ptr %9, align 4
  %58 = sext i32 %57 to i64
  %59 = call i32 @pg_checksum_update(ptr noundef %13, ptr noundef %56, i64 noundef %58)
  %60 = icmp slt i32 %59, 0
  br i1 %60, label %61, label %73

61:                                               ; preds = %40
  br label %62

62:                                               ; preds = %61
  br i1 true, label %63, label %65

63:                                               ; preds = %62
  %64 = call zeroext i1 @errstart_cold(i32 noundef 21, ptr noundef null) #14
  br i1 %64, label %67, label %70

65:                                               ; preds = %62
  %66 = call zeroext i1 @errstart(i32 noundef 21, ptr noundef null)
  br i1 %66, label %67, label %70

67:                                               ; preds = %65, %63
  %68 = load ptr, ptr %7, align 8
  %69 = call i32 (ptr, ...) @errmsg_internal(ptr noundef @.str.97, ptr noundef %68)
  call void @errfinish(ptr noundef @.str.1, i32 noundef 1109, ptr noundef @__func__.sendFileWithContent)
  br label %70

70:                                               ; preds = %67, %65, %63
  unreachable

71:                                               ; No predecessors!
  br label %72

72:                                               ; preds = %71
  br label %73

73:                                               ; preds = %72, %40
  br label %74

74:                                               ; preds = %94, %73
  %75 = load i32, ptr %12, align 4
  %76 = load i32, ptr %9, align 4
  %77 = icmp slt i32 %75, %76
  br i1 %77, label %78, label %111

78:                                               ; preds = %74
  call void @llvm.lifetime.start.p0(i64 8, ptr %14) #13
  %79 = load i32, ptr %9, align 4
  %80 = load i32, ptr %12, align 4
  %81 = sub i32 %79, %80
  %82 = sext i32 %81 to i64
  store i64 %82, ptr %14, align 8
  call void @llvm.lifetime.start.p0(i64 8, ptr %15) #13
  %83 = load ptr, ptr %6, align 8
  %84 = getelementptr inbounds nuw %struct.bbsink, ptr %83, i32 0, i32 2
  %85 = load i64, ptr %84, align 8
  %86 = load i64, ptr %14, align 8
  %87 = icmp ult i64 %85, %86
  br i1 %87, label %88, label %92

88:                                               ; preds = %78
  %89 = load ptr, ptr %6, align 8
  %90 = getelementptr inbounds nuw %struct.bbsink, ptr %89, i32 0, i32 2
  %91 = load i64, ptr %90, align 8
  br label %94

92:                                               ; preds = %78
  %93 = load i64, ptr %14, align 8
  br label %94

94:                                               ; preds = %92, %88
  %95 = phi i64 [ %91, %88 ], [ %93, %92 ]
  store i64 %95, ptr %15, align 8
  %96 = load ptr, ptr %6, align 8
  %97 = getelementptr inbounds nuw %struct.bbsink, ptr %96, i32 0, i32 1
  %98 = load ptr, ptr %97, align 8
  %99 = load ptr, ptr %8, align 8
  %100 = load i64, ptr %15, align 8
  call void @llvm.memcpy.p0.p0.i64(ptr align 1 %98, ptr align 1 %99, i64 %100, i1 false)
  %101 = load ptr, ptr %6, align 8
  %102 = load i64, ptr %15, align 8
  call void @bbsink_archive_contents(ptr noundef %101, i64 noundef %102)
  %103 = load i64, ptr %15, align 8
  %104 = load i32, ptr %12, align 4
  %105 = sext i32 %104 to i64
  %106 = add i64 %105, %103
  %107 = trunc i64 %106 to i32
  store i32 %107, ptr %12, align 4
  %108 = load i64, ptr %15, align 8
  %109 = load ptr, ptr %8, align 8
  %110 = getelementptr inbounds nuw i8, ptr %109, i64 %108
  store ptr %110, ptr %8, align 8
  call void @llvm.lifetime.end.p0(i64 8, ptr %15) #13
  call void @llvm.lifetime.end.p0(i64 8, ptr %14) #13
  br label %74, !llvm.loop !20

111:                                              ; preds = %74
  %112 = load ptr, ptr %6, align 8
  %113 = load i32, ptr %9, align 4
  call void @_tarWritePadding(ptr noundef %112, i32 noundef %113)
  %114 = load ptr, ptr %10, align 8
  %115 = load ptr, ptr %7, align 8
  %116 = load i32, ptr %9, align 4
  %117 = sext i32 %116 to i64
  %118 = getelementptr inbounds nuw %struct.stat, ptr %11, i32 0, i32 12
  %119 = getelementptr inbounds nuw %struct.timespec, ptr %118, i32 0, i32 0
  %120 = load i64, ptr %119, align 8
  call void @AddFileToBackupManifest(ptr noundef %114, i32 noundef 0, ptr noundef %115, i64 noundef %117, i64 noundef %120, ptr noundef %13)
  call void @llvm.lifetime.end.p0(i64 16, ptr %13) #13
  call void @llvm.lifetime.end.p0(i64 4, ptr %12) #13
  call void @llvm.lifetime.end.p0(i64 144, ptr %11) #13
  ret void
}