; Function Attrs: nounwind uwtable
define internal fastcc void @sendFileWithContent(ptr noundef %0, ptr noundef %1, ptr noundef %2, ptr noundef nonnull %3) unnamed_addr #0 {
  %5 = alloca %struct.stat, align 8
  %6 = alloca %struct.pg_checksum_context, align 8
  call void @llvm.lifetime.start.p0(i64 144, ptr nonnull %5) #19
  call void @llvm.lifetime.start.p0(i64 16, ptr nonnull %6) #19
  %7 = getelementptr inbounds nuw i8, ptr %3, i64 8
  %8 = load i32, ptr %7, align 8
  %9 = call i32 @pg_checksum_init(ptr noundef nonnull %6, i32 noundef %8) #19
  %10 = icmp slt i32 %9, 0
  br i1 %10, label %11, label %14

11:                                               ; preds = %4
  %12 = call zeroext i1 @errstart_cold(i32 noundef 21, ptr noundef null) #20
  call void @llvm.assume(i1 %12)
  %13 = call i32 (ptr, ...) @errmsg_internal(ptr noundef nonnull @.str.96, ptr noundef %1) #19
  call void @errfinish(ptr noundef nonnull @.str.1, i32 noundef 1084, ptr noundef nonnull @__func__.sendFileWithContent) #19
  unreachable

14:                                               ; preds = %4
  %15 = call i64 @strlen(ptr noundef nonnull dereferenceable(1) %2) #21
  %16 = trunc i64 %15 to i32
  %17 = call i32 @geteuid() #19
  %18 = getelementptr inbounds nuw i8, ptr %5, i64 28
  store i32 %17, ptr %18, align 4
  %19 = call i32 @getegid() #19
  %20 = getelementptr inbounds nuw i8, ptr %5, i64 32
  store i32 %19, ptr %20, align 8
  %21 = call i64 @time(ptr noundef null) #19
  %22 = getelementptr inbounds nuw i8, ptr %5, i64 88
  store i64 %21, ptr %22, align 8
  %23 = load i32, ptr @pg_file_create_mode, align 4
  %24 = getelementptr inbounds nuw i8, ptr %5, i64 24
  store i32 %23, ptr %24, align 8
  %sext = shl i64 %15, 32
  %25 = ashr exact i64 %sext, 32
  %26 = getelementptr inbounds nuw i8, ptr %5, i64 48
  store i64 %25, ptr %26, align 8
  call fastcc void @_tarWriteHeader(ptr noundef %0, ptr noundef %1, ptr noundef null, ptr noundef %5, i1 noundef zeroext false)
  %27 = call i32 @pg_checksum_update(ptr noundef nonnull %6, ptr noundef nonnull %2, i64 noundef %25) #19
  %28 = icmp slt i32 %27, 0
  br i1 %28, label %32, label %.preheader

.preheader:                                       ; preds = %14
  %29 = icmp sgt i32 %16, 0
  br i1 %29, label %.lr.ph, label %._crit_edge

.lr.ph:                                           ; preds = %.preheader
  %30 = getelementptr inbounds nuw i8, ptr %0, i64 16
  %31 = getelementptr inbounds nuw i8, ptr %0, i64 8
  br label %35

32:                                               ; preds = %14
  %33 = call zeroext i1 @errstart_cold(i32 noundef 21, ptr noundef null) #20
  call void @llvm.assume(i1 %33)
  %34 = call i32 (ptr, ...) @errmsg_internal(ptr noundef nonnull @.str.97, ptr noundef %1) #19
  call void @errfinish(ptr noundef nonnull @.str.1, i32 noundef 1109, ptr noundef nonnull @__func__.sendFileWithContent) #19
  unreachable

35:                                               ; preds = %.lr.ph, %35
  %.037 = phi ptr [ %2, %.lr.ph ], [ %45, %35 ]
  %.03236 = phi i32 [ 0, %.lr.ph ], [ %44, %35 ]
  %36 = sub i32 %16, %.03236
  %37 = sext i32 %36 to i64
  %38 = load i64, ptr %30, align 8
  %. = call i64 @llvm.umin.i64(i64 %38, i64 %37)
  %39 = load ptr, ptr %31, align 8
  call void @llvm.memcpy.p0.p0.i64(ptr align 1 %39, ptr align 1 %.037, i64 %., i1 false)
  %40 = load ptr, ptr %0, align 8
  %41 = getelementptr inbounds nuw i8, ptr %40, i64 16
  %42 = load ptr, ptr %41, align 8
  call void %42(ptr noundef nonnull %0, i64 noundef %.) #19
  %43 = trunc i64 %. to i32
  %44 = add i32 %.03236, %43
  %45 = getelementptr inbounds nuw i8, ptr %.037, i64 %.
  %46 = icmp slt i32 %44, %16
  br i1 %46, label %35, label %._crit_edge, !llvm.loop !15

._crit_edge:                                      ; preds = %35, %.preheader
  %47 = add i64 %15, 511
  %48 = and i64 %47, 8589934080
  %49 = sub i64 %48, %15
  %50 = trunc i64 %49 to i32
  %51 = icmp sgt i32 %50, 0
  br i1 %51, label %52, label %_tarWritePadding.exit

52:                                               ; preds = %._crit_edge
  %53 = getelementptr inbounds nuw i8, ptr %0, i64 8
  %54 = load ptr, ptr %53, align 8
  %55 = and i64 %49, 2147483647
  %56 = ptrtoint ptr %54 to i64
  %57 = and i64 %56, 7
  %58 = icmp eq i64 %57, 0
  br i1 %58, label %59, label %.loopexit.i.sink.split

59:                                               ; preds = %52
  %60 = and i64 %49, 7
  %61 = icmp eq i64 %60, 0
  %62 = icmp samesign ult i64 %55, 1025
  %or.cond3.i = select i1 %61, i1 %62, i1 false
  br i1 %or.cond3.i, label %63, label %.loopexit.i.sink.split

63:                                               ; preds = %59
  %.not.i = icmp eq i64 %55, 0
  br i1 %.not.i, label %.loopexit.i, label %.lr.ph.preheader.i

.lr.ph.preheader.i:                               ; preds = %63
  %64 = add i64 %55, %56
  %65 = add i64 %56, 8
  %umax.i = call i64 @llvm.umax.i64(i64 %64, i64 %65)
  %66 = xor i64 %56, -1
  %67 = add i64 %umax.i, %66
  %68 = and i64 %67, -8
  %69 = add i64 %68, 8
  br label %.loopexit.i.sink.split

.loopexit.i.sink.split:                           ; preds = %52, %59, %.lr.ph.preheader.i
  %.sink = phi i64 [ %69, %.lr.ph.preheader.i ], [ %55, %59 ], [ %55, %52 ]
  call void @llvm.memset.p0.i64(ptr align 1 %54, i8 0, i64 %.sink, i1 false)
  br label %.loopexit.i

.loopexit.i:                                      ; preds = %.loopexit.i.sink.split, %63
  %70 = load ptr, ptr %0, align 8
  %71 = getelementptr inbounds nuw i8, ptr %70, i64 16
  %72 = load ptr, ptr %71, align 8
  call void %72(ptr noundef nonnull %0, i64 noundef %55) #19
  br label %_tarWritePadding.exit

_tarWritePadding.exit:                            ; preds = %._crit_edge, %.loopexit.i
  call void @AddFileToBackupManifest(ptr noundef nonnull %3, i32 noundef 0, ptr noundef %1, i64 noundef %25, i64 noundef %21, ptr noundef nonnull %6) #19
  call void @llvm.lifetime.end.p0(i64 16, ptr nonnull %6) #19
  call void @llvm.lifetime.end.p0(i64 144, ptr nonnull %5) #19
  ret void
}